target datalayout = "e-m:e-p270:32:32-p271:32:32-p272:64:64-i64:64-i128:128-f80:128-n8:16:32:64-S128"
target triple = "x86_64-pc-linux-gnu"

; Function Attrs: mustprogress nounwind uwtable
define noundef i32 @_ZN9NR_Jacobi9transposeEPA4_d(ptr noundef %0) #1 {
  %2 = alloca ptr, align 8
  %3 = alloca double, align 8
  %4 = alloca i32, align 4
  %5 = alloca i32, align 4
  store ptr %0, ptr %2, align 8
  store i32 0, ptr %4, align 4
  br label %6

6:                                                ; preds = %51, %1
  %7 = load i32, ptr %4, align 4
  %8 = icmp slt i32 %7, 4
  br i1 %8, label %9, label %54

9:                                                ; preds = %6
  %10 = load i32, ptr %4, align 4
  %11 = add nsw i32 %10, 1
  store i32 %11, ptr %5, align 4
  br label %12

12:                                               ; preds = %47, %9
  %13 = load i32, ptr %5, align 4
  %14 = icmp slt i32 %13, 4
  br i1 %14, label %15, label %50

15:                                               ; preds = %12
  %16 = load ptr, ptr %2, align 8
  %17 = load i32, ptr %4, align 4
  %18 = sext i32 %17 to i64
  %19 = getelementptr inbounds [4 x double], ptr %16, i64 %18
  %20 = load i32, ptr %5, align 4
  %21 = sext i32 %20 to i64
  %22 = getelementptr inbounds [4 x double], ptr %19, i64 0, i64 %21
  %23 = load double, ptr %22, align 8
  store double %23, ptr %3, align 8
  %24 = load ptr, ptr %2, align 8
  %25 = load i32, ptr %5, align 4
  %26 = sext i32 %25 to i64
  %27 = getelementptr inbounds [4 x double], ptr %24, i64 %26
  %28 = load i32, ptr %4, align 4
  %29 = sext i32 %28 to i64
  %30 = getelementptr inbounds [4 x double], ptr %27, i64 0, i64 %29
  %31 = load double, ptr %30, align 8
  %32 = load ptr, ptr %2, align 8
  %33 = load i32, ptr %4, align 4
  %34 = sext i32 %33 to i64
  %35 = getelementptr inbounds [4 x double], ptr %32, i64 %34
  %36 = load i32, ptr %5, align 4
  %37 = sext i32 %36 to i64
  %38 = getelementptr inbounds [4 x double], ptr %35, i64 0, i64 %37
  store double %31, ptr %38, align 8
  %39 = load double, ptr %3, align 8
  %40 = load ptr, ptr %2, align 8
  %41 = load i32, ptr %5, align 4
  %42 = sext i32 %41 to i64
  %43 = getelementptr inbounds [4 x double], ptr %40, i64 %42
  %44 = load i32, ptr %4, align 4
  %45 = sext i32 %44 to i64
  %46 = getelementptr inbounds [4 x double], ptr %43, i64 0, i64 %45
  store double %39, ptr %46, align 8
  br label %47

47:                                               ; preds = %15
  %48 = load i32, ptr %5, align 4
  %49 = add nsw i32 %48, 1
  store i32 %49, ptr %5, align 4
  br label %12, !llvm.loop !22

50:                                               ; preds = %12
  br label %51

51:                                               ; preds = %50
  %52 = load i32, ptr %4, align 4
  %53 = add nsw i32 %52, 1
  store i32 %53, ptr %4, align 4
  br label %6, !llvm.loop !23

54:                                               ; preds = %6
  ret i32 0
}