; Function Attrs: mustprogress nofree norecurse nosync nounwind memory(argmem: readwrite) uwtable
define noundef i32 @_ZN9NR_Jacobi9transposeEPA4_d(ptr nocapture noundef %0) local_unnamed_addr #0 {
  br label %2

.loopexit:                                        ; preds = %.lr.ph, %2
  %indvars.iv.next = add nuw nsw i64 %indvars.iv, 1
  %exitcond26.not = icmp eq i64 %indvars.iv.next24, 4
  br i1 %exitcond26.not, label %8, label %2, !llvm.loop !21

2:                                                ; preds = %1, %.loopexit
  %indvars.iv23 = phi i64 [ 0, %1 ], [ %indvars.iv.next24, %.loopexit ]
  %indvars.iv = phi i64 [ 1, %1 ], [ %indvars.iv.next, %.loopexit ]
  %indvars.iv.next24 = add nuw nsw i64 %indvars.iv23, 1
  %3 = icmp ult i64 %indvars.iv23, 3
  br i1 %3, label %.lr.ph, label %.loopexit

.lr.ph:                                           ; preds = %2, %.lr.ph
  %indvars.iv20 = phi i64 [ %indvars.iv.next21, %.lr.ph ], [ %indvars.iv, %2 ]
  %4 = getelementptr inbounds [4 x double], ptr %0, i64 %indvars.iv23, i64 %indvars.iv20
  %5 = load double, ptr %4, align 8
  %6 = getelementptr inbounds [4 x double], ptr %0, i64 %indvars.iv20, i64 %indvars.iv23
  %7 = load double, ptr %6, align 8
  store double %7, ptr %4, align 8
  store double %5, ptr %6, align 8
  %indvars.iv.next21 = add nuw nsw i64 %indvars.iv20, 1
  %exitcond.not = icmp eq i64 %indvars.iv.next21, 4
  br i1 %exitcond.not, label %.loopexit, label %.lr.ph, !llvm.loop !22

8:                                                ; preds = %.loopexit
  ret i32 0
}